; Function Attrs: mustprogress uwtable
define hidden void @_ZN4cvc58internal13preprocessing6passes11MipLibTrickC2EPNS1_24PreprocessingPassContextE(ptr noundef nonnull align 8 dereferenceable(96) %this, ptr noundef %preprocContext) unnamed_addr #3 align 2 personality ptr @__gxx_personality_v0 {
entry:
  %ref.tmp = alloca %"class.std::__cxx11::basic_string", align 8
  %ref.tmp2 = alloca %"class.std::allocator", align 1
  call void @_ZNSaIcEC1Ev(ptr noundef nonnull align 1 dereferenceable(1) %ref.tmp2) #20
  %call.i4 = invoke noundef ptr @_ZNSt7__cxx1112basic_stringIcSt11char_traitsIcESaIcEE13_M_local_dataEv(ptr noundef nonnull align 8 dereferenceable(32) %ref.tmp)
          to label %call.i.noexc unwind label %lpad

call.i.noexc:                                     ; preds = %entry
  invoke void @_ZNSt7__cxx1112basic_stringIcSt11char_traitsIcESaIcEE12_Alloc_hiderC1EPcRKS3_(ptr noundef nonnull align 8 dereferenceable(8) %ref.tmp, ptr noundef %call.i4, ptr noundef nonnull align 1 dereferenceable(1) %ref.tmp2)
          to label %.noexc unwind label %lpad

.noexc:                                           ; preds = %call.i.noexc
  invoke void @_ZNSt7__cxx1112basic_stringIcSt11char_traitsIcESaIcEE12_M_constructIPKcEEvT_S8_St20forward_iterator_tag(ptr noundef nonnull align 8 dereferenceable(32) %ref.tmp, ptr noundef nonnull @.str, ptr noundef nonnull getelementptr inbounds ([13 x i8], ptr @.str, i64 0, i64 12))
          to label %invoke.cont unwind label %lpad.i

lpad.i:                                           ; preds = %.noexc
  %0 = landingpad { ptr, i32 }
          cleanup
  call void @_ZNSaIcED2Ev(ptr noundef nonnull align 1 dereferenceable(1) %ref.tmp) #20
  br label %ehcleanup

invoke.cont:                                      ; preds = %.noexc
  invoke void @_ZN4cvc58internal13preprocessing17PreprocessingPassC2EPNS1_24PreprocessingPassContextERKNSt7__cxx1112basic_stringIcSt11char_traitsIcESaIcEEE(ptr noundef nonnull align 8 dereferenceable(64) %this, ptr noundef %preprocContext, ptr noundef nonnull align 8 dereferenceable(32) %ref.tmp)
          to label %invoke.cont4 unwind label %lpad3

invoke.cont4:                                     ; preds = %invoke.cont
  call void @_ZNSt7__cxx1112basic_stringIcSt11char_traitsIcESaIcEED1Ev(ptr noundef nonnull align 8 dereferenceable(32) %ref.tmp) #20
  call void @_ZNSaIcED1Ev(ptr noundef nonnull align 1 dereferenceable(1) %ref.tmp2) #20
  store ptr getelementptr inbounds ({ [5 x ptr] }, ptr @_ZTVN4cvc58internal13preprocessing6passes11MipLibTrickE, i64 0, i32 0, i64 2), ptr %this, align 8
  %call = invoke noundef nonnull align 8 dereferenceable(72) ptr @_ZNK4cvc58internal6EnvObj18statisticsRegistryEv(ptr noundef nonnull align 8 dereferenceable(16) %this)
          to label %invoke.cont6 unwind label %lpad5

invoke.cont6:                                     ; preds = %invoke.cont4
  %d_statistics = getelementptr inbounds i8, ptr %this, i64 64
  invoke void @_ZN4cvc58internal13preprocessing6passes11MipLibTrick10StatisticsC2ERNS0_18StatisticsRegistryE(ptr noundef nonnull align 8 dereferenceable(8) %d_statistics, ptr noundef nonnull align 8 dereferenceable(72) %call)
          to label %invoke.cont7 unwind label %lpad5

invoke.cont7:                                     ; preds = %invoke.cont6
  %d_boolVars = getelementptr inbounds i8, ptr %this, i64 72
  call void @llvm.memset.p0.i64(ptr noundef nonnull align 8 dereferenceable(24) %d_boolVars, i8 0, i64 24, i1 false)
  ret void

lpad:                                             ; preds = %call.i.noexc, %entry
  %1 = landingpad { ptr, i32 }
          cleanup
  br label %ehcleanup

lpad3:                                            ; preds = %invoke.cont
  %2 = landingpad { ptr, i32 }
          cleanup
  call void @_ZNSt7__cxx1112basic_stringIcSt11char_traitsIcESaIcEED1Ev(ptr noundef nonnull align 8 dereferenceable(32) %ref.tmp) #20
  br label %ehcleanup

ehcleanup:                                        ; preds = %lpad, %lpad.i, %lpad3
  %.pn = phi { ptr, i32 } [ %2, %lpad3 ], [ %1, %lpad ], [ %0, %lpad.i ]
  call void @_ZNSaIcED1Ev(ptr noundef nonnull align 1 dereferenceable(1) %ref.tmp2) #20
  br label %eh.resume

lpad5:                                            ; preds = %invoke.cont6, %invoke.cont4
  %3 = landingpad { ptr, i32 }
          cleanup
  call void @_ZN4cvc58internal13preprocessing17PreprocessingPassD2Ev(ptr noundef nonnull align 8 dereferenceable(64) %this) #20
  br label %eh.resume

eh.resume:                                        ; preds = %lpad5, %ehcleanup
  %.pn2 = phi { ptr, i32 } [ %3, %lpad5 ], [ %.pn, %ehcleanup ]
  resume { ptr, i32 } %.pn2
}